target datalayout = "e-m:e-p270:32:32-p271:32:32-p272:64:64-i64:64-i128:128-f80:128-n8:16:32:64-S128"
target triple = "x86_64-pc-linux-gnu"

; Function Attrs: nounwind uwtable
define internal i32 @cpy_asc(i64 noundef %0, ptr noundef %1) #0 {
  %3 = alloca i64, align 8
  %4 = alloca ptr, align 8
  %5 = alloca ptr, align 8
  %6 = alloca ptr, align 8
  store i64 %0, ptr %3, align 8, !tbaa !12
  store ptr %1, ptr %4, align 8, !tbaa !14
  call void @llvm.lifetime.start.p0(i64 8, ptr %5) #5
  call void @llvm.lifetime.start.p0(i64 8, ptr %6) #5
  %7 = load ptr, ptr %4, align 8, !tbaa !14
  store ptr %7, ptr %5, align 8, !tbaa !26
  %8 = load ptr, ptr %5, align 8, !tbaa !26
  %9 = load ptr, ptr %8, align 8, !tbaa !8
  store ptr %9, ptr %6, align 8, !tbaa !8
  %10 = load i64, ptr %3, align 8, !tbaa !12
  %11 = trunc i64 %10 to i8
  %12 = load ptr, ptr %6, align 8, !tbaa !8
  store i8 %11, ptr %12, align 1, !tbaa !17
  %13 = load ptr, ptr %5, align 8, !tbaa !26
  %14 = load ptr, ptr %13, align 8, !tbaa !8
  %15 = getelementptr inbounds nuw i8, ptr %14, i32 1
  store ptr %15, ptr %13, align 8, !tbaa !8
  call void @llvm.lifetime.end.p0(i64 8, ptr %6) #5
  call void @llvm.lifetime.end.p0(i64 8, ptr %5) #5
  ret i32 1
}